target datalayout = "e-m:e-p270:32:32-p271:32:32-p272:64:64-i64:64-i128:128-f80:128-n8:16:32:64-S128"
target triple = "x86_64-pc-linux-gnu"

%struct.AVFilterContext = type { ptr, ptr, ptr, ptr, ptr, i32, ptr, ptr, i32, ptr, ptr, i32, i32, ptr, ptr, ptr, ptr, i32, ptr, i32, i32 }
%struct.RemapContext = type { ptr, i32, i32, i32, i32, [4 x i8], [4 x i32], %struct.FFFrameSync, ptr }
%struct.FFFrameSync = type { ptr, ptr, i32, %struct.AVRational, i64, ptr, ptr, i32, i32, i8, i8, ptr, i32, i32, i32, i32 }
%struct.AVRational = type { i32, i32 }
%struct.AVFilterFormatsConfig = type { ptr, ptr, ptr, ptr, ptr }

@query_formats.gray_pix_fmts = internal constant [7 x i32] [i32 8, i32 173, i32 168, i32 166, i32 181, i32 30, i32 -1], align 16
@query_formats.map_fmts = internal constant [2 x i32] [i32 30, i32 -1], align 4

; Function Attrs: nounwind uwtable
define internal i32 @query_formats(ptr noundef %0, ptr noundef %1, ptr noundef %2) #1 {
  %4 = alloca i32, align 4
  %5 = alloca ptr, align 8
  %6 = alloca ptr, align 8
  %7 = alloca ptr, align 8
  %8 = alloca ptr, align 8
  %9 = alloca ptr, align 8
  %10 = alloca ptr, align 8
  %11 = alloca i32, align 4
  %12 = alloca i32, align 4
  store ptr %0, ptr %5, align 8, !tbaa !4
  store ptr %1, ptr %6, align 8, !tbaa !24
  store ptr %2, ptr %7, align 8, !tbaa !24
  call void @llvm.lifetime.start.p0(i64 8, ptr %8) #8
  %13 = load ptr, ptr %5, align 8, !tbaa !4
  %14 = getelementptr inbounds nuw %struct.AVFilterContext, ptr %13, i32 0, i32 9
  %15 = load ptr, ptr %14, align 8, !tbaa !9
  store ptr %15, ptr %8, align 8, !tbaa !22
  call void @llvm.lifetime.start.p0(i64 8, ptr %9) #8
  store ptr null, ptr %9, align 8, !tbaa !26
  call void @llvm.lifetime.start.p0(i64 8, ptr %10) #8
  store ptr null, ptr %10, align 8, !tbaa !26
  call void @llvm.lifetime.start.p0(i64 4, ptr %11) #8
  %16 = load ptr, ptr %8, align 8, !tbaa !22
  %17 = getelementptr inbounds nuw %struct.RemapContext, ptr %16, i32 0, i32 1
  %18 = load i32, ptr %17, align 8, !tbaa !28
  %19 = icmp ne i32 %18, 0
  %20 = select i1 %19, ptr @query_formats.gray_pix_fmts, ptr @query_formats.pix_fmts
  %21 = call ptr @ff_make_format_list(ptr noundef %20)
  store ptr %21, ptr %9, align 8, !tbaa !26
  %22 = load ptr, ptr %9, align 8, !tbaa !26
  %23 = load ptr, ptr %6, align 8, !tbaa !24
  %24 = getelementptr inbounds ptr, ptr %23, i64 0
  %25 = load ptr, ptr %24, align 8, !tbaa !34
  %26 = getelementptr inbounds nuw %struct.AVFilterFormatsConfig, ptr %25, i32 0, i32 0
  %27 = call i32 @ff_formats_ref(ptr noundef %22, ptr noundef %26)
  store i32 %27, ptr %11, align 4, !tbaa !36
  %28 = icmp slt i32 %27, 0
  br i1 %28, label %37, label %29

29:                                               ; preds = %3
  %30 = load ptr, ptr %9, align 8, !tbaa !26
  %31 = load ptr, ptr %7, align 8, !tbaa !24
  %32 = getelementptr inbounds ptr, ptr %31, i64 0
  %33 = load ptr, ptr %32, align 8, !tbaa !34
  %34 = getelementptr inbounds nuw %struct.AVFilterFormatsConfig, ptr %33, i32 0, i32 0
  %35 = call i32 @ff_formats_ref(ptr noundef %30, ptr noundef %34)
  store i32 %35, ptr %11, align 4, !tbaa !36
  %36 = icmp slt i32 %35, 0
  br i1 %36, label %37, label %39

37:                                               ; preds = %29, %3
  %38 = load i32, ptr %11, align 4, !tbaa !36
  store i32 %38, ptr %4, align 4
  store i32 1, ptr %12, align 4
  br label %57

39:                                               ; preds = %29
  %40 = call ptr @ff_make_format_list(ptr noundef @query_formats.map_fmts)
  store ptr %40, ptr %10, align 8, !tbaa !26
  %41 = load ptr, ptr %10, align 8, !tbaa !26
  %42 = load ptr, ptr %6, align 8, !tbaa !24
  %43 = getelementptr inbounds ptr, ptr %42, i64 1
  %44 = load ptr, ptr %43, align 8, !tbaa !34
  %45 = getelementptr inbounds nuw %struct.AVFilterFormatsConfig, ptr %44, i32 0, i32 0
  %46 = call i32 @ff_formats_ref(ptr noundef %41, ptr noundef %45)
  store i32 %46, ptr %11, align 4, !tbaa !36
  %47 = icmp slt i32 %46, 0
  br i1 %47, label %48, label %50

48:                                               ; preds = %39
  %49 = load i32, ptr %11, align 4, !tbaa !36
  store i32 %49, ptr %4, align 4
  store i32 1, ptr %12, align 4
  br label %57

50:                                               ; preds = %39
  %51 = load ptr, ptr %10, align 8, !tbaa !26
  %52 = load ptr, ptr %6, align 8, !tbaa !24
  %53 = getelementptr inbounds ptr, ptr %52, i64 2
  %54 = load ptr, ptr %53, align 8, !tbaa !34
  %55 = getelementptr inbounds nuw %struct.AVFilterFormatsConfig, ptr %54, i32 0, i32 0
  %56 = call i32 @ff_formats_ref(ptr noundef %51, ptr noundef %55)
  store i32 %56, ptr %4, align 4
  store i32 1, ptr %12, align 4
  br label %57

57:                                               ; preds = %50, %48, %37
  call void @llvm.lifetime.end.p0(i64 4, ptr %11) #8
  call void @llvm.lifetime.end.p0(i64 8, ptr %10) #8
  call void @llvm.lifetime.end.p0(i64 8, ptr %9) #8
  call void @llvm.lifetime.end.p0(i64 8, ptr %8) #8
  %58 = load i32, ptr %4, align 4
  ret i32 %58
}