; Function Attrs: nounwind uwtable
define internal i32 @query_formats(ptr noundef readonly captures(none) %0, ptr noundef readonly captures(none) %1, ptr noundef readonly captures(none) %2) #1 {
  %4 = getelementptr inbounds nuw i8, ptr %0, i64 72
  %5 = load ptr, ptr %4, align 8, !tbaa !4
  %6 = getelementptr inbounds nuw i8, ptr %5, i64 8
  %7 = load i32, ptr %6, align 8, !tbaa !20
  %.not = icmp eq i32 %7, 0
  %8 = select i1 %.not, ptr @query_formats.pix_fmts, ptr @query_formats.gray_pix_fmts
  %9 = tail call ptr @ff_make_format_list(ptr noundef nonnull %8) #8
  %10 = load ptr, ptr %1, align 8, !tbaa !27
  %11 = tail call i32 @ff_formats_ref(ptr noundef %9, ptr noundef %10) #8
  %12 = icmp slt i32 %11, 0
  br i1 %12, label %27, label %13

13:                                               ; preds = %3
  %14 = load ptr, ptr %2, align 8, !tbaa !27
  %15 = tail call i32 @ff_formats_ref(ptr noundef %9, ptr noundef %14) #8
  %16 = icmp slt i32 %15, 0
  br i1 %16, label %27, label %17

17:                                               ; preds = %13
  %18 = tail call ptr @ff_make_format_list(ptr noundef nonnull @query_formats.map_fmts) #8
  %19 = getelementptr inbounds nuw i8, ptr %1, i64 8
  %20 = load ptr, ptr %19, align 8, !tbaa !27
  %21 = tail call i32 @ff_formats_ref(ptr noundef %18, ptr noundef %20) #8
  %22 = icmp slt i32 %21, 0
  br i1 %22, label %27, label %23

23:                                               ; preds = %17
  %24 = getelementptr inbounds nuw i8, ptr %1, i64 16
  %25 = load ptr, ptr %24, align 8, !tbaa !27
  %26 = tail call i32 @ff_formats_ref(ptr noundef %18, ptr noundef %25) #8
  br label %27

27:                                               ; preds = %17, %3, %13, %23
  %.012 = phi i32 [ %26, %23 ], [ %11, %3 ], [ %15, %13 ], [ %21, %17 ]
  ret i32 %.012
}